; Function Attrs: mustprogress uwtable
define hidden void @_ZN2cv11bioinspired11RetinaColor40_adaptiveHorizontalCausalFilter_addInputEPKfPfjj(ptr noundef nonnull readonly align 8 captures(none) dereferenceable(349) %0, ptr noundef %1, ptr noundef %2, i32 noundef %3, i32 noundef %4) local_unnamed_addr #3 align 2 personality ptr @__gxx_personality_v0 {
  %6 = alloca %"class.cv::Range", align 4
  %7 = alloca %"class.cv::bioinspired::RetinaColor::Parallel_adaptiveHorizontalCausalFilter_addInput", align 8
  call void @llvm.lifetime.start.p0(i64 8, ptr nonnull %6) #19
  store i32 %3, ptr %6, align 4, !tbaa !151
  %8 = getelementptr inbounds nuw i8, ptr %6, i64 4
  store i32 %4, ptr %8, align 4, !tbaa !153
  call void @llvm.lifetime.start.p0(i64 40, ptr nonnull %7) #19
  %9 = getelementptr inbounds nuw i8, ptr %0, i64 328
  %10 = load ptr, ptr %9, align 8, !tbaa !16
  %11 = getelementptr inbounds nuw i8, ptr %0, i64 40
  %12 = load i64, ptr %11, align 8, !tbaa !62
  %13 = trunc i64 %12 to i32
  store ptr getelementptr inbounds nuw inrange(-16, 24) (i8, ptr @_ZTVN2cv11bioinspired11RetinaColor48Parallel_adaptiveHorizontalCausalFilter_addInputE, i64 16), ptr %7, align 8, !tbaa !3
  %14 = getelementptr inbounds nuw i8, ptr %7, i64 8
  store ptr %2, ptr %14, align 8, !tbaa !181
  %15 = getelementptr inbounds nuw i8, ptr %7, i64 16
  store ptr %1, ptr %15, align 8, !tbaa !183
  %16 = getelementptr inbounds nuw i8, ptr %7, i64 24
  store ptr %10, ptr %16, align 8, !tbaa !184
  %17 = getelementptr inbounds nuw i8, ptr %7, i64 32
  store i32 %13, ptr %17, align 8, !tbaa !185
  invoke void @_ZN2cv13parallel_for_ERKNS_5RangeERKNS_16ParallelLoopBodyEd(ptr noundef nonnull align 4 dereferenceable(8) %6, ptr noundef nonnull align 8 dereferenceable(8) %7, double noundef -1.000000e+00)
          to label %18 unwind label %19

18:                                               ; preds = %5
  call void @_ZN2cv16ParallelLoopBodyD2Ev(ptr noundef nonnull align 8 dereferenceable(36) %7) #19
  call void @llvm.lifetime.end.p0(i64 40, ptr nonnull %7) #19
  call void @llvm.lifetime.end.p0(i64 8, ptr nonnull %6) #19
  ret void

19:                                               ; preds = %5
  %20 = landingpad { ptr, i32 }
          cleanup
  call void @_ZN2cv16ParallelLoopBodyD2Ev(ptr noundef nonnull align 8 dereferenceable(36) %7) #19
  call void @llvm.lifetime.end.p0(i64 40, ptr nonnull %7) #19
  call void @llvm.lifetime.end.p0(i64 8, ptr nonnull %6) #19
  resume { ptr, i32 } %20
}